(lp1
S'Signs point to yes.'
aS'Yes.'
aS'Reply hazy, try again.'
aS'Without a doubt.'
aS'My sources say no.'
aS'As I see it, yes.'
aS'You may rely on it.'
aS'Concentrate and ask again.'
aS'Outlook not so good.'
aS'It is decidedly so.'
aS'Better not tell you now.'
aS'Very doubtful.'
aS'Yes - definitely.'
aS'It is certain.'
aS'Cannot predict now.'
aS'Most likely.'
aS'Ask again later.'
aS'My reply is no.'
aS'Outlook good.'
aS"Don't count on it."
aS'Yes, in due time.'
aS'My sources say no.'
aS'Definitely not.'
aS'Yes.'
aS'You will have to wait.'
aS'I have my doubts.'
aS'Outlook so so.'
aS'Looks good to me!'
aS'Who knows?'
aS'Looking good!'
aS'Probably.'
aS'Are you kidding?'
aS'Go for it!'
aS"Don't bet on it."
aS'Forget about it.'
aS'Fuck You!'
a.